; Function Attrs: nofree nounwind sspstrong uwtable
define internal noundef ptr @nogvl_mkdir(ptr noundef readonly captures(none) %0) #17 {
  %2 = load ptr, ptr %0, align 8, !tbaa !93
  %3 = getelementptr inbounds nuw i8, ptr %0, i64 8
  %4 = load i32, ptr %3, align 8, !tbaa !88
  %5 = tail call i32 @mkdir(ptr noundef %2, i32 noundef %4) #22
  %6 = sext i32 %5 to i64
  %7 = inttoptr i64 %6 to ptr
  ret ptr %7
}